target datalayout = "e-m:e-p270:32:32-p271:32:32-p272:64:64-i64:64-i128:128-f80:128-n8:16:32:64-S128"
target triple = "x86_64-pc-linux-gnu"

%"class.icu_77::StringPiece" = type <{ ptr, i32, [4 x i8] }>

; Function Attrs: mustprogress nounwind uwtable
define linkonce_odr void @_ZN6icu_7711StringPieceC2EPKci(ptr noundef nonnull align 8 dereferenceable(12) %0, ptr noundef %1, i32 noundef %2) unnamed_addr #0 comdat align 2 {
  %4 = alloca ptr, align 8
  %5 = alloca ptr, align 8
  %6 = alloca i32, align 4
  store ptr %0, ptr %4, align 8, !tbaa !30
  store ptr %1, ptr %5, align 8, !tbaa !17
  store i32 %2, ptr %6, align 4, !tbaa !14
  %7 = load ptr, ptr %4, align 8
  %8 = getelementptr inbounds nuw %"class.icu_77::StringPiece", ptr %7, i32 0, i32 0
  %9 = load ptr, ptr %5, align 8, !tbaa !17
  store ptr %9, ptr %8, align 8, !tbaa !32
  %10 = getelementptr inbounds nuw %"class.icu_77::StringPiece", ptr %7, i32 0, i32 1
  %11 = load i32, ptr %6, align 4, !tbaa !14
  store i32 %11, ptr %10, align 8, !tbaa !34
  ret void
}

; Function Attrs: mustprogress uwtable
define void @ulocbld_setExtension_77(ptr noundef %0, i8 noundef signext %1, ptr noundef %2, i32 noundef %3) #1 {
  %5 = alloca ptr, align 8
  %6 = alloca i8, align 1
  %7 = alloca ptr, align 8
  %8 = alloca i32, align 4
  %9 = alloca %"class.icu_77::StringPiece", align 8
  store ptr %0, ptr %5, align 8, !tbaa !23
  store i8 %1, ptr %6, align 1, !tbaa !27
  store ptr %2, ptr %7, align 8, !tbaa !17
  store i32 %3, ptr %8, align 4, !tbaa !14
  %10 = load ptr, ptr %5, align 8, !tbaa !23
  %11 = icmp eq ptr %10, null
  br i1 %11, label %12, label %13

12:                                               ; preds = %4
  br label %29

13:                                               ; preds = %4
  %14 = load ptr, ptr %5, align 8, !tbaa !23
  %15 = load i8, ptr %6, align 1, !tbaa !27
  %16 = load i32, ptr %8, align 4, !tbaa !14
  %17 = icmp slt i32 %16, 0
  br i1 %17, label %18, label %20

18:                                               ; preds = %13
  %19 = load ptr, ptr %7, align 8, !tbaa !17
  call void @_ZN6icu_7711StringPieceC1EPKc(ptr noundef nonnull align 8 dereferenceable(12) %9, ptr noundef %19)
  br label %23

20:                                               ; preds = %13
  %21 = load ptr, ptr %7, align 8, !tbaa !17
  %22 = load i32, ptr %8, align 4, !tbaa !14
  call void @_ZN6icu_7711StringPieceC2EPKci(ptr noundef nonnull align 8 dereferenceable(12) %9, ptr noundef %21, i32 noundef %22)
  br label %23

23:                                               ; preds = %20, %18
  %24 = getelementptr inbounds nuw { ptr, i32 }, ptr %9, i32 0, i32 0
  %25 = load ptr, ptr %24, align 8
  %26 = getelementptr inbounds nuw { ptr, i32 }, ptr %9, i32 0, i32 1
  %27 = load i32, ptr %26, align 8
  %28 = call noundef nonnull align 8 dereferenceable(48) ptr @_ZN6icu_7713LocaleBuilder12setExtensionEcNS_11StringPieceE(ptr noundef nonnull align 8 dereferenceable(48) %14, i8 noundef signext %15, ptr %25, i32 %27)
  br label %29

29:                                               ; preds = %23, %12
  ret void
}