; Function Attrs: mustprogress uwtable
define void @ulocbld_setExtension_77(ptr noundef %0, i8 noundef signext %1, ptr noundef %2, i32 noundef %3) local_unnamed_addr #1 {
  %5 = alloca %"class.icu_77::StringPiece", align 8
  %6 = icmp eq ptr %0, null
  br i1 %6, label %16, label %7

7:                                                ; preds = %4
  %8 = icmp slt i32 %3, 0
  br i1 %8, label %9, label %10

9:                                                ; preds = %7
  call void @_ZN6icu_7711StringPieceC1EPKc(ptr noundef nonnull align 8 dereferenceable(12) %5, ptr noundef %2)
  %.pre = load ptr, ptr %5, align 8
  %.phi.trans.insert = getelementptr inbounds nuw i8, ptr %5, i64 8
  %.pre7 = load i32, ptr %.phi.trans.insert, align 8
  br label %12

10:                                               ; preds = %7
  store ptr %2, ptr %5, align 8, !tbaa !18
  %11 = getelementptr inbounds nuw i8, ptr %5, i64 8
  store i32 %3, ptr %11, align 8, !tbaa !20
  br label %12

12:                                               ; preds = %10, %9
  %13 = phi i32 [ %3, %10 ], [ %.pre7, %9 ]
  %14 = phi ptr [ %2, %10 ], [ %.pre, %9 ]
  %15 = call noundef nonnull align 8 dereferenceable(48) ptr @_ZN6icu_7713LocaleBuilder12setExtensionEcNS_11StringPieceE(ptr noundef nonnull align 8 dereferenceable(48) %0, i8 noundef signext %1, ptr %14, i32 %13)
  br label %16

16:                                               ; preds = %4, %12
  ret void
}